; Function Attrs: mustprogress uwtable
define dso_local void @_ZNK4i18n12phonenumbers26PhoneNumberOfflineGeocoder23GetDescriptionForNumberERKNS0_11PhoneNumberERKN6icu_706LocaleERKNSt7__cxx1112basic_stringIcSt11char_traitsIcESaIcEEE(ptr dead_on_unwind noalias writable sret(%"class.std::__cxx11::basic_string") align 8 %0, ptr noundef nonnull align 8 dereferenceable(104) %1, ptr noundef nonnull align 8 dereferenceable(72) %2, ptr noundef nonnull align 8 dereferenceable(217) %3, ptr noundef nonnull align 8 dereferenceable(32) %4) local_unnamed_addr #3 align 2 personality ptr @__gxx_personality_v0 {
  %6 = alloca %"class.std::__cxx11::basic_string", align 8
  %7 = alloca %"class.std::allocator.0", align 1
  %8 = getelementptr inbounds i8, ptr %1, i64 8
  %9 = load ptr, ptr %8, align 8
  %10 = tail call noundef i32 @_ZNK4i18n12phonenumbers15PhoneNumberUtil13GetNumberTypeERKNS0_11PhoneNumberE(ptr noundef nonnull align 8 dereferenceable(64) %9, ptr noundef nonnull align 8 dereferenceable(72) %2)
  %11 = icmp eq i32 %10, 11
  br i1 %11, label %12, label %18

12:                                               ; preds = %5
  call void @_ZNSaIcEC1Ev(ptr noundef nonnull align 1 dereferenceable(1) %7) #14
  %13 = invoke noundef ptr @_ZNSt7__cxx1112basic_stringIcSt11char_traitsIcESaIcEE13_M_local_dataEv(ptr noundef nonnull align 8 dereferenceable(32) %0)
          to label %.noexc unwind label %16

.noexc:                                           ; preds = %12
  invoke void @_ZNSt7__cxx1112basic_stringIcSt11char_traitsIcESaIcEE12_Alloc_hiderC1EPcRKS3_(ptr noundef nonnull align 8 dereferenceable(8) %0, ptr noundef %13, ptr noundef nonnull align 1 dereferenceable(1) %7)
          to label %.noexc11 unwind label %16

.noexc11:                                         ; preds = %.noexc
  invoke void @_ZNSt7__cxx1112basic_stringIcSt11char_traitsIcESaIcEE12_M_constructIPKcEEvT_S8_St20forward_iterator_tag(ptr noundef nonnull align 8 dereferenceable(32) %0, ptr noundef nonnull @.str.1, ptr noundef nonnull @.str.1)
          to label %_ZNSt7__cxx1112basic_stringIcSt11char_traitsIcESaIcEEC2IS3_EEPKcRKS3_.exit unwind label %14

14:                                               ; preds = %.noexc11
  %15 = landingpad { ptr, i32 }
          cleanup
  call void @_ZNSaIcED2Ev(ptr noundef nonnull align 1 dereferenceable(1) %0) #14
  br label %.body

_ZNSt7__cxx1112basic_stringIcSt11char_traitsIcESaIcEEC2IS3_EEPKcRKS3_.exit: ; preds = %.noexc11
  call void @_ZNSaIcED1Ev(ptr noundef nonnull align 1 dereferenceable(1) %7) #14
  br label %29

16:                                               ; preds = %.noexc, %12
  %17 = landingpad { ptr, i32 }
          cleanup
  br label %.body

common.resume:                                    ; preds = %26, %.body
  %common.resume.op = phi { ptr, i32 } [ %eh.lpad-body, %.body ], [ %27, %26 ]
  resume { ptr, i32 } %common.resume.op

.body:                                            ; preds = %14, %16
  %eh.lpad-body = phi { ptr, i32 } [ %17, %16 ], [ %15, %14 ]
  call void @_ZNSaIcED1Ev(ptr noundef nonnull align 1 dereferenceable(1) %7) #14
  br label %common.resume

18:                                               ; preds = %5
  %19 = load ptr, ptr %8, align 8
  %20 = getelementptr inbounds i8, ptr %2, i64 56
  %21 = load i32, ptr %20, align 8
  %22 = tail call noundef zeroext i1 @_ZNK4i18n12phonenumbers15PhoneNumberUtil20IsNumberGeographicalENS1_15PhoneNumberTypeEi(ptr noundef nonnull align 8 dereferenceable(64) %19, i32 noundef %10, i32 noundef %21)
  br i1 %22, label %28, label %23

23:                                               ; preds = %18
  call void @llvm.lifetime.start.p0(i64 32, ptr nonnull %6)
  call void @_ZNSt7__cxx1112basic_stringIcSt11char_traitsIcESaIcEEC1Ev(ptr noundef nonnull align 8 dereferenceable(32) %6) #14, !noalias !15
  %24 = load ptr, ptr %8, align 8, !noalias !15
  invoke void @_ZNK4i18n12phonenumbers15PhoneNumberUtil22GetRegionCodeForNumberERKNS0_11PhoneNumberEPNSt7__cxx1112basic_stringIcSt11char_traitsIcESaIcEEE(ptr noundef nonnull align 8 dereferenceable(64) %24, ptr noundef nonnull align 8 dereferenceable(72) %2, ptr noundef nonnull %6)
          to label %25 unwind label %26, !noalias !15

25:                                               ; preds = %23
  invoke void @_ZNK4i18n12phonenumbers26PhoneNumberOfflineGeocoder20GetRegionDisplayNameEPKNSt7__cxx1112basic_stringIcSt11char_traitsIcESaIcEEERKN6icu_706LocaleE(ptr dead_on_unwind writable sret(%"class.std::__cxx11::basic_string") align 8 %0, ptr nonnull align 8 poison, ptr noundef nonnull %6, ptr noundef nonnull align 8 dereferenceable(217) %3)
          to label %_ZNK4i18n12phonenumbers26PhoneNumberOfflineGeocoder23GetCountryNameForNumberB5cxx11ERKNS0_11PhoneNumberERKN6icu_706LocaleE.exit unwind label %26

26:                                               ; preds = %25, %23
  %27 = landingpad { ptr, i32 }
          cleanup
  call void @_ZNSt7__cxx1112basic_stringIcSt11char_traitsIcESaIcEED1Ev(ptr noundef nonnull align 8 dereferenceable(32) %6) #14
  br label %common.resume

_ZNK4i18n12phonenumbers26PhoneNumberOfflineGeocoder23GetCountryNameForNumberB5cxx11ERKNS0_11PhoneNumberERKN6icu_706LocaleE.exit: ; preds = %25
  call void @_ZNSt7__cxx1112basic_stringIcSt11char_traitsIcESaIcEED1Ev(ptr noundef nonnull align 8 dereferenceable(32) %6) #14
  call void @llvm.lifetime.end.p0(i64 32, ptr nonnull %6)
  br label %29

28:                                               ; preds = %18
  tail call void @_ZNK4i18n12phonenumbers26PhoneNumberOfflineGeocoder28GetDescriptionForValidNumberERKNS0_11PhoneNumberERKN6icu_706LocaleERKNSt7__cxx1112basic_stringIcSt11char_traitsIcESaIcEEE(ptr dead_on_unwind writable sret(%"class.std::__cxx11::basic_string") align 8 %0, ptr noundef nonnull align 8 dereferenceable(104) %1, ptr noundef nonnull align 8 dereferenceable(72) %2, ptr noundef nonnull align 8 dereferenceable(217) %3, ptr noundef nonnull align 8 dereferenceable(32) %4)
  br label %29

29:                                               ; preds = %28, %_ZNK4i18n12phonenumbers26PhoneNumberOfflineGeocoder23GetCountryNameForNumberB5cxx11ERKNS0_11PhoneNumberERKN6icu_706LocaleE.exit, %_ZNSt7__cxx1112basic_stringIcSt11char_traitsIcESaIcEEC2IS3_EEPKcRKS3_.exit
  ret void
}